Certificate:
    Data:
        Version: 3 (0x2)
        Serial Number: 11765884848197169742 (0xa348d1ee5cf1724e)
    Signature Algorithm: sha256WithRSAEncryption
        Issuer: C=CO, ST=Colorado, O=self-service certificate authority, CN=Host/emailAddress=bwunder@yahoo.com
        Validity
            Not Before: Sep  7 13:48:42 2015 GMT
            Not After : Sep  6 13:48:42 2016 GMT
        Subject: C=CO, ST=Colorado, L=Pueblo, O=self-service certificate authority, CN=ssl/emailAddress=bwunder@yahoo.com
        Subject Public Key Info:
            Public Key Algorithm: rsaEncryption
                Public-Key: (2048 bit)
                Modulus:
                    00:c8:6e:cd:fb:c3:4e:6f:4d:52:ce:cd:f4:e8:ee:
                    ec:88:64:87:ae:1b:f7:86:a2:4b:76:22:02:32:fb:
                    ae:6b:83:c7:b2:80:6b:44:cb:5b:04:39:89:1f:6a:
                    0b:21:04:51:bc:0a:2a:91:62:1c:a2:62:f8:e1:8f:
                    d0:c7:94:fc:75:fd:6c:07:06:c3:53:5d:f0:9b:e1:
                    a0:12:23:56:37:86:c9:fa:01:86:8d:69:25:97:0d:
                    3d:26:86:10:bf:de:46:ca:c8:3b:cb:c9:d5:7f:56:
                    d7:5d:6f:a7:15:aa:ab:b7:37:41:fe:28:fb:0e:26:
                    fb:47:32:15:76:3e:b5:7d:dc:bb:fc:e4:13:ed:92:
                    d7:14:16:98:e4:7c:c7:98:73:13:a1:31:1e:4c:9e:
                    4b:dd:c0:41:b9:4d:d4:d8:da:4b:c9:40:a9:b1:e5:
                    72:a9:52:76:83:e7:04:2f:6f:54:e5:6c:69:8f:68:
                    44:e6:92:5f:80:76:ab:36:2e:df:f0:0d:7c:76:90:
                    bc:c7:b5:ec:ad:b5:4a:88:e5:28:89:a4:bf:7b:32:
                    58:65:4f:02:28:ad:6b:43:61:1f:17:0b:4e:51:4b:
                    18:dd:35:4c:7e:a1:45:86:75:a1:0a:c2:fe:73:3c:
                    85:06:9c:5e:18:27:19:40:23:7a:3c:97:35:dd:1b:
                    29:b1
                Exponent: 65537 (0x10001)
        X509v3 extensions:
            X509v3 Basic Constraints: 
                CA:FALSE
            Netscape Comment: 
                OpenSSL Generated Certificate
            X509v3 Subject Key Identifier: 
                9E:F4:54:85:26:FC:AD:FC:2F:D1:14:6C:98:42:53:8F:7E:4D:82:D2
            X509v3 Authority Key Identifier: 
                keyid:CE:EA:60:6A:4D:9E:81:68:04:75:3C:E5:B0:76:A8:D4:26:2C:A5:57

    Signature Algorithm: sha256WithRSAEncryption
         0a:f4:cd:21:0c:ca:da:ca:c6:2e:25:64:54:01:97:55:93:52:
         bc:a7:bd:8d:58:0a:74:5a:a5:d7:44:80:81:1c:6c:bf:68:48:
         51:77:b4:74:1c:0e:7b:37:d5:a0:d8:c5:c0:fa:d2:d5:a3:f0:
         80:17:03:01:9b:b0:f1:1a:f3:d3:23:3b:69:a4:fa:a9:16:04:
         f2:2a:5f:95:3e:b4:47:fa:20:7b:76:58:6a:69:03:e8:5a:50:
         74:6b:5f:b3:d9:5f:ba:de:48:bb:fa:3e:94:84:f6:45:19:f9:
         7d:21:30:60:bf:d5:77:a5:c7:2c:79:e9:81:21:bb:f1:8d:61:
         96:5a:a8:d8:3a:73:38:cd:c4:c2:c1:71:b6:fc:f9:67:34:34:
         a5:94:63:a8:7d:1e:f4:41:01:69:5f:41:d3:23:a0:b1:5e:c3:
         d0:9f:47:16:52:91:44:f3:1a:ad:96:d3:a3:8e:c8:51:14:27:
         22:8c:88:cc:70:a9:80:e3:59:41:a1:14:fc:b2:b6:50:5f:68:
         09:a5:2e:db:6c:84:17:dc:b4:32:b7:b0:e5:e2:d1:c8:e7:72:
         2a:77:36:99:43:f4:91:bb:27:ac:43:f0:db:ac:96:30:85:ff:
         33:6e:8e:70:80:e0:3f:24:19:16:0c:28:4d:77:9f:88:49:a8:
         cc:40:44:62
-----BEGIN CERTIFICATE-----
MIIECzCCAvOgAwIBAgIJAKNI0e5c8XJOMA0GCSqGSIb3DQEBCwUAMH4xCzAJBgNV
BAYTAkNPMREwDwYDVQQIDAhDb2xvcmFkbzErMCkGA1UECgwic2VsZi1zZXJ2aWNl
IGNlcnRpZmljYXRlIGF1dGhvcml0eTENMAsGA1UEAwwESG9zdDEgMB4GCSqGSIb3
DQEJARYRYnd1bmRlckB5YWhvby5jb20wHhcNMTUwOTA3MTM0ODQyWhcNMTYwOTA2
MTM0ODQyWjCBjjELMAkGA1UEBhMCQ08xETAPBgNVBAgMCENvbG9yYWRvMQ8wDQYD
VQQHDAZQdWVibG8xKzApBgNVBAoMInNlbGYtc2VydmljZSBjZXJ0aWZpY2F0ZSBh
dXRob3JpdHkxDDAKBgNVBAMMA3NzbDEgMB4GCSqGSIb3DQEJARYRYnd1bmRlckB5
YWhvby5jb20wggEiMA0GCSqGSIb3DQEBAQUAA4IBDwAwggEKAoIBAQDIbs37w05v
TVLOzfTo7uyIZIeuG/eGokt2IgIy+65rg8eygGtEy1sEOYkfagshBFG8CiqRYhyi
Yvjhj9DHlPx1/WwHBsNTXfCb4aASI1Y3hsn6AYaNaSWXDT0mhhC/3kbKyDvLydV/
Vtddb6cVqqu3N0H+KPsOJvtHMhV2PrV93Lv85BPtktcUFpjkfMeYcxOhMR5Mnkvd
wEG5TdTY2kvJQKmx5XKpUnaD5wQvb1TlbGmPaETmkl+Adqs2Lt/wDXx2kLzHteyt
tUqI5SiJpL97MlhlTwIorWtDYR8XC05RSxjdNUx+oUWGdaEKwv5zPIUGnF4YJxlA
I3o8lzXdGymxAgMBAAGjezB5MAkGA1UdEwQCMAAwLAYJYIZIAYb4QgENBB8WHU9w
ZW5TU0wgR2VuZXJhdGVkIENlcnRpZmljYXRlMB0GA1UdDgQWBBSe9FSFJvyt/C/R
FGyYQlOPfk2C0jAfBgNVHSMEGDAWgBTO6mBqTZ6BaAR1POWwdqjUJiylVzANBgkq
hkiG9w0BAQsFAAOCAQEACvTNIQzK2srGLiVkVAGXVZNSvKe9jVgKdFql10SAgRxs
v2hIUXe0dBwOezfVoNjFwPrS1aPwgBcDAZuw8Rrz0yM7aaT6qRYE8ipflT60R/og
e3ZYamkD6FpQdGtfs9lfut5Iu/o+lIT2RRn5fSEwYL/Vd6XHLHnpgSG78Y1hllqo
2DpzOM3EwsFxtvz5ZzQ0pZRjqH0e9EEBaV9B0yOgsV7D0J9HFlKRRPMarZbTo47I
URQnIoyIzHCpgONZQaEU/LK2UF9oCaUu22yEF9y0Mrew5eLRyOdyKnc2mUP0kbsn
rEPw26yWMIX/M26OcIDgPyQZFgwoTXefiEmozEBEYg==
-----END CERTIFICATE-----
