Certificate:
    Data:
        Version: 3 (0x2)
        Serial Number: 14589412056906901139 (0xca7800f7bdbca693)
    Signature Algorithm: sha256WithRSAEncryption
        Issuer: C=US, ST=Colorado, O=Lonesome hobo\x1B[, OU=pack, CN=host.local/emailAddress=bwunder@yahoo.com
        Validity
            Not Before: Aug 25 18:01:23 2015 GMT
            Not After : Aug 24 18:01:23 2016 GMT
        Subject: C=CO, ST=Colorado, L=Pueblo, O=Bill Wunder, CN=host.local/emailAddress=bwunder@yahoo.com
        Subject Public Key Info:
            Public Key Algorithm: rsaEncryption
                Public-Key: (2048 bit)
                Modulus:
                    00:e5:c7:18:d1:c5:67:23:01:53:b6:56:56:18:4f:
                    69:58:61:4c:96:d0:f2:d9:be:cb:16:23:19:6f:47:
                    e6:d3:56:6d:84:79:77:a1:96:7d:45:e3:04:5a:08:
                    6c:1d:e2:f4:f0:97:49:3d:54:c1:f4:c3:fa:12:d2:
                    d7:68:10:96:50:a3:75:63:e5:da:9f:2a:7a:cc:bd:
                    85:2e:73:bd:fa:51:22:9a:ab:5e:bf:54:32:65:80:
                    50:05:6a:b5:ba:2d:67:09:1f:07:d3:16:4f:c2:c1:
                    02:59:66:7b:e9:58:dc:18:92:b7:88:eb:d5:24:65:
                    fc:e3:76:ca:67:57:62:a7:f8:e7:8b:5b:45:9a:17:
                    59:cc:c8:52:5c:99:b7:46:42:b2:00:49:d0:bf:6e:
                    62:7d:7a:90:e9:ac:a1:87:57:4a:c4:5f:d1:87:9e:
                    a3:51:5c:ce:4d:49:4b:d4:7c:f7:ab:50:76:8c:54:
                    01:13:21:4d:43:57:c4:0e:23:c8:1d:4b:3d:96:4c:
                    29:14:2f:1d:2f:28:ab:c7:ac:62:89:20:b5:a5:ec:
                    2e:bd:14:93:bb:d9:52:2b:e7:08:24:67:b0:b4:30:
                    25:7d:46:c9:14:65:f4:20:ba:22:e2:38:c1:8e:92:
                    c8:59:2b:da:d5:4c:0e:ef:69:a2:96:0a:6f:2f:b7:
                    2a:3b
                Exponent: 65537 (0x10001)
        X509v3 extensions:
            X509v3 Basic Constraints: 
                CA:FALSE
            Netscape Comment: 
                OpenSSL Generated Certificate
            X509v3 Subject Key Identifier: 
                F4:89:98:A4:84:B4:C7:33:62:EF:D1:98:DE:80:A9:92:C7:69:E9:A9
            X509v3 Authority Key Identifier: 
                keyid:05:88:B0:00:80:5C:75:BB:75:AB:99:BC:37:9E:30:0A:D9:23:90:FC

    Signature Algorithm: sha256WithRSAEncryption
         76:ba:03:be:db:a3:54:e5:ed:13:8f:b6:ae:37:73:19:53:98:
         fe:ad:30:1d:f0:83:41:ff:f2:d9:ec:96:55:79:3a:a4:b4:39:
         50:c7:e1:01:d2:cb:40:e9:b3:d1:b2:91:5c:b4:e5:db:7a:e7:
         50:35:89:41:7f:11:4d:3f:56:42:57:4a:79:0c:34:f1:9e:0e:
         de:9e:28:e0:79:19:de:2a:b7:d4:a4:c4:18:6e:17:ec:76:b0:
         51:87:4e:e2:03:09:91:73:42:84:21:62:05:69:71:5b:55:7c:
         26:88:4c:ce:7e:d4:ed:8c:00:a8:ad:28:97:fe:0f:eb:a3:50:
         1d:25:da:65:a4:7e:ef:a5:95:01:c8:0d:23:05:e0:3b:78:47:
         a9:6d:54:18:0f:56:57:70:24:44:60:86:6f:84:e7:63:ed:62:
         7a:18:1b:c4:af:50:41:d9:ed:44:3a:18:82:6a:f3:55:0d:14:
         46:c9:35:85:8c:d1:76:03:1e:5b:33:98:42:c6:a1:54:45:42:
         51:65:4b:72:e5:d6:af:2c:03:06:49:d6:18:f2:4f:44:ab:02:
         ed:13:6e:f6:0c:c6:74:bf:f1:ef:3b:15:3c:15:8a:50:90:33:
         69:22:88:48:1d:91:e1:79:0f:53:d7:9e:ba:c2:58:a9:71:fc:
         8c:9b:f4:9c
-----BEGIN CERTIFICATE-----
MIID/TCCAuWgAwIBAgIJAMp4APe9vKaTMA0GCSqGSIb3DQEBCwUAMIGAMQswCQYD
VQQGEwJVUzERMA8GA1UECAwIQ29sb3JhZG8xGDAWBgNVBAoMD0xvbmVzb21lIGhv
Ym8bWzENMAsGA1UECwwEcGFjazETMBEGA1UEAwwKaG9zdC5sb2NhbDEgMB4GCSqG
SIb3DQEJARYRYnd1bmRlckB5YWhvby5jb20wHhcNMTUwODI1MTgwMTIzWhcNMTYw
ODI0MTgwMTIzWjB+MQswCQYDVQQGEwJDTzERMA8GA1UECAwIQ29sb3JhZG8xDzAN
BgNVBAcMBlB1ZWJsbzEUMBIGA1UECgwLQmlsbCBXdW5kZXIxEzARBgNVBAMMCmhv
c3QubG9jYWwxIDAeBgkqhkiG9w0BCQEWEWJ3dW5kZXJAeWFob28uY29tMIIBIjAN
BgkqhkiG9w0BAQEFAAOCAQ8AMIIBCgKCAQEA5ccY0cVnIwFTtlZWGE9pWGFMltDy
2b7LFiMZb0fm01ZthHl3oZZ9ReMEWghsHeL08JdJPVTB9MP6EtLXaBCWUKN1Y+Xa
nyp6zL2FLnO9+lEimqtev1QyZYBQBWq1ui1nCR8H0xZPwsECWWZ76VjcGJK3iOvV
JGX843bKZ1dip/jni1tFmhdZzMhSXJm3RkKyAEnQv25ifXqQ6ayhh1dKxF/Rh56j
UVzOTUlL1Hz3q1B2jFQBEyFNQ1fEDiPIHUs9lkwpFC8dLyirx6xiiSC1pewuvRST
u9lSK+cIJGewtDAlfUbJFGX0ILoi4jjBjpLIWSva1UwO72milgpvL7cqOwIDAQAB
o3sweTAJBgNVHRMEAjAAMCwGCWCGSAGG+EIBDQQfFh1PcGVuU1NMIEdlbmVyYXRl
ZCBDZXJ0aWZpY2F0ZTAdBgNVHQ4EFgQU9ImYpIS0xzNi79GY3oCpksdp6akwHwYD
VR0jBBgwFoAUBYiwAIBcdbt1q5m8N54wCtkjkPwwDQYJKoZIhvcNAQELBQADggEB
AHa6A77bo1Tl7ROPtq43cxlTmP6tMB3wg0H/8tnsllV5OqS0OVDH4QHSy0Dps9Gy
kVy05dt651A1iUF/EU0/VkJXSnkMNPGeDt6eKOB5Gd4qt9SkxBhuF+x2sFGHTuID
CZFzQoQhYgVpcVtVfCaITM5+1O2MAKitKJf+D+ujUB0l2mWkfu+llQHIDSMF4Dt4
R6ltVBgPVldwJERghm+E52PtYnoYG8SvUEHZ7UQ6GIJq81UNFEbJNYWM0XYDHlsz
mELGoVRFQlFlS3Ll1q8sAwZJ1hjyT0SrAu0TbvYMxnS/8e87FTwVilCQM2kiiEgd
keF5D1PXnrrCWKlx/Iyb9Jw=
-----END CERTIFICATE-----
